; Function Attrs: mustprogress nounwind uwtable
define hidden void @_ZN4cvc58internal7CDProofD0Ev(ptr noundef nonnull align 8 dereferenceable(217) %this) unnamed_addr #4 align 2 {
entry:
  store ptr getelementptr inbounds ({ [6 x ptr], [8 x ptr] }, ptr @_ZTVN4cvc58internal7CDProofE, i64 0, i32 0, i64 2), ptr %this, align 8
  %add.ptr.i = getelementptr inbounds i8, ptr %this, i64 16
  store ptr getelementptr inbounds ({ [6 x ptr], [8 x ptr] }, ptr @_ZTVN4cvc58internal7CDProofE, i64 0, i32 1, i64 2), ptr %add.ptr.i, align 8
  %d_name.i = getelementptr inbounds i8, ptr %this, i64 184
  tail call void @_ZNSt7__cxx1112basic_stringIcSt11char_traitsIcESaIcEED1Ev(ptr noundef nonnull align 8 dereferenceable(32) %d_name.i) #19
  %d_nodes.i = getelementptr inbounds i8, ptr %this, i64 72
  tail call void @_ZN4cvc57context9CDHashMapINS_8internal12NodeTemplateILb1EEESt10shared_ptrINS2_9ProofNodeEESt4hashIS4_EED2Ev(ptr noundef nonnull align 8 dereferenceable(112) %d_nodes.i) #19
  %d_context.i = getelementptr inbounds i8, ptr %this, i64 24
  tail call void @_ZN4cvc57context7ContextD1Ev(ptr noundef nonnull align 8 dereferenceable(48) %d_context.i) #19
  tail call void @_ZN4cvc58internal14ProofGeneratorD2Ev(ptr noundef nonnull align 8 dereferenceable(8) %add.ptr.i) #19
  tail call void @_ZdlPv(ptr noundef nonnull %this) #21
  ret void
}